(lp0
(lp1
(lp2
I2
aI4
aa(lp3
I4
aI1
aa(lp4
I1
aI2
aa(lp5
I3
aI3
aaa(lp6
(lp7
I4
aI3
aa(lp8
I1
aI2
aa(lp9
I2
aI4
aa(lp10
I3
aI1
aaa(lp11
(lp12
I1
aI1
aa(lp13
I4
aI4
aa(lp14
I3
aI2
aa(lp15
I2
aI3
aaa(lp16
(lp17
I1
aI1
aa(lp18
I3
aI2
aa(lp19
I4
aI4
aa(lp20
I2
aI3
aaa(lp21
(lp22
I3
aI4
aa(lp23
I4
aI2
aa(lp24
I2
aI1
aa(lp25
I1
aI3
aaa(lp26
(lp27
I4
aI3
aa(lp28
I1
aI2
aa(lp29
I3
aI1
aa(lp30
I2
aI4
aaa(lp31
(lp32
I2
aI2
aa(lp33
I4
aI1
aa(lp34
I3
aI3
aa(lp35
I1
aI4
aaa(lp36
(lp37
I1
aI1
aa(lp38
I2
aI3
aa(lp39
I4
aI4
aa(lp40
I3
aI2
aaa(lp41
(lp42
I4
aI3
aa(lp43
I3
aI1
aa(lp44
I2
aI4
aa(lp45
I1
aI2
aaa(lp46
(lp47
I2
aI2
aa(lp48
I3
aI3
aa(lp49
I1
aI4
aa(lp50
I4
aI1
aaa(lp51
(lp52
I4
aI3
aa(lp53
I2
aI4
aa(lp54
I3
aI1
aa(lp55
I1
aI2
aaa(lp56
(lp57
I3
aI4
aa(lp58
I2
aI1
aa(lp59
I4
aI2
aa(lp60
I1
aI3
aaa(lp61
(lp62
I2
aI2
aa(lp63
I1
aI4
aa(lp64
I3
aI3
aa(lp65
I4
aI1
aaa(lp66
(lp67
I4
aI3
aa(lp68
I2
aI4
aa(lp69
I1
aI2
aa(lp70
I3
aI1
aaa(lp71
(lp72
I3
aI4
aa(lp73
I1
aI3
aa(lp74
I4
aI1
aa(lp75
I2
aI2
aaa(lp76
(lp77
I1
aI1
aa(lp78
I4
aI2
aa(lp79
I2
aI3
aa(lp80
I3
aI4
aaa(lp81
(lp82
I2
aI1
aa(lp83
I3
aI4
aa(lp84
I1
aI3
aa(lp85
I4
aI2
aaa(lp86
(lp87
I2
aI1
aa(lp88
I3
aI4
aa(lp89
I1
aI3
aa(lp90
I4
aI2
aaa(lp91
(lp92
I1
aI4
aa(lp93
I3
aI3
aa(lp94
I4
aI2
aa(lp95
I2
aI1
aaa(lp96
(lp97
I3
aI2
aa(lp98
I2
aI1
aa(lp99
I1
aI3
aa(lp100
I4
aI4
aaa(lp101
(lp102
I3
aI2
aa(lp103
I1
aI1
aa(lp104
I2
aI3
aa(lp105
I4
aI4
aaa(lp106
(lp107
I4
aI4
aa(lp108
I1
aI3
aa(lp109
I2
aI2
aa(lp110
I3
aI1
aaa(lp111
(lp112
I3
aI2
aa(lp113
I2
aI3
aa(lp114
I4
aI1
aa(lp115
I1
aI4
aaa(lp116
(lp117
I2
aI2
aa(lp118
I3
aI4
aa(lp119
I1
aI1
aa(lp120
I4
aI3
aaa(lp121
(lp122
I1
aI4
aa(lp123
I4
aI2
aa(lp124
I3
aI3
aa(lp125
I2
aI1
aaa.