(lp0
(lp1
(lp2
I4
aI3
aa(lp3
I3
aI1
aa(lp4
I2
aI4
aa(lp5
I1
aI2
aaa(lp6
(lp7
I2
aI2
aa(lp8
I1
aI4
aa(lp9
I4
aI1
aa(lp10
I3
aI3
aaa(lp11
(lp12
I1
aI1
aa(lp13
I2
aI3
aa(lp14
I3
aI2
aa(lp15
I4
aI4
aaa(lp16
(lp17
I3
aI4
aa(lp18
I1
aI3
aa(lp19
I4
aI2
aa(lp20
I2
aI1
aaa(lp21
(lp22
I3
aI4
aa(lp23
I1
aI3
aa(lp24
I2
aI1
aa(lp25
I4
aI2
aaa(lp26
(lp27
I1
aI1
aa(lp28
I4
aI4
aa(lp29
I3
aI2
aa(lp30
I2
aI3
aaa(lp31
(lp32
I3
aI4
aa(lp33
I2
aI1
aa(lp34
I1
aI3
aa(lp35
I4
aI2
aaa(lp36
(lp37
I4
aI3
aa(lp38
I2
aI4
aa(lp39
I1
aI2
aa(lp40
I3
aI1
aaa(lp41
(lp42
I2
aI2
aa(lp43
I4
aI1
aa(lp44
I3
aI3
aa(lp45
I1
aI4
aaa(lp46
(lp47
I2
aI2
aa(lp48
I3
aI3
aa(lp49
I4
aI1
aa(lp50
I1
aI4
aaa(lp51
(lp52
I4
aI3
aa(lp53
I1
aI2
aa(lp54
I2
aI4
aa(lp55
I3
aI1
aaa(lp56
(lp57
I1
aI1
aa(lp58
I3
aI2
aa(lp59
I4
aI4
aa(lp60
I2
aI3
aaa(lp61
(lp62
I2
aI2
aa(lp63
I4
aI1
aa(lp64
I1
aI4
aa(lp65
I3
aI3
aaa(lp66
(lp67
I3
aI4
aa(lp68
I4
aI2
aa(lp69
I1
aI3
aa(lp70
I2
aI1
aaa(lp71
(lp72
I4
aI3
aa(lp73
I2
aI4
aa(lp74
I3
aI1
aa(lp75
I1
aI2
aaa(lp76
(lp77
I1
aI1
aa(lp78
I3
aI2
aa(lp79
I2
aI3
aa(lp80
I4
aI4
aaa(lp81
(lp82
I3
aI4
aa(lp83
I2
aI1
aa(lp84
I4
aI2
aa(lp85
I1
aI3
aaa(lp86
(lp87
I4
aI3
aa(lp88
I1
aI2
aa(lp89
I3
aI1
aa(lp90
I2
aI4
aaa(lp91
(lp92
I2
aI2
aa(lp93
I3
aI3
aa(lp94
I1
aI4
aa(lp95
I4
aI1
aaa(lp96
(lp97
I1
aI1
aa(lp98
I4
aI4
aa(lp99
I2
aI3
aa(lp100
I3
aI2
aaa(lp101
(lp102
I3
aI4
aa(lp103
I4
aI2
aa(lp104
I2
aI1
aa(lp105
I1
aI3
aaa(lp106
(lp107
I1
aI1
aa(lp108
I2
aI3
aa(lp109
I4
aI4
aa(lp110
I3
aI2
aaa(lp111
(lp112
I4
aI3
aa(lp113
I3
aI1
aa(lp114
I1
aI2
aa(lp115
I2
aI4
aaa(lp116
(lp117
I2
aI2
aa(lp118
I1
aI4
aa(lp119
I3
aI3
aa(lp120
I4
aI1
aaa(lp121
(lp122
I3
aI4
aa(lp123
I4
aI2
aa(lp124
I1
aI3
aa(lp125
I2
aI1
aaa(lp126
(lp127
I1
aI1
aa(lp128
I2
aI3
aa(lp129
I3
aI2
aa(lp130
I4
aI4
aaa(lp131
(lp132
I2
aI2
aa(lp133
I1
aI4
aa(lp134
I4
aI1
aa(lp135
I3
aI3
aaa(lp136
(lp137
I4
aI3
aa(lp138
I2
aI4
aa(lp139
I3
aI1
aa(lp140
I1
aI2
aaa(lp141
(lp142
I4
aI3
aa(lp143
I2
aI4
aa(lp144
I1
aI2
aa(lp145
I3
aI1
aaa(lp146
(lp147
I2
aI2
aa(lp148
I3
aI3
aa(lp149
I4
aI1
aa(lp150
I1
aI4
aaa(lp151
(lp152
I4
aI3
aa(lp153
I1
aI2
aa(lp154
I2
aI4
aa(lp155
I3
aI1
aaa(lp156
(lp157
I3
aI4
aa(lp158
I1
aI3
aa(lp159
I2
aI1
aa(lp160
I4
aI2
aaa(lp161
(lp162
I1
aI1
aa(lp163
I3
aI2
aa(lp164
I4
aI4
aa(lp165
I2
aI3
aaa(lp166
(lp167
I1
aI1
aa(lp168
I4
aI4
aa(lp169
I3
aI2
aa(lp170
I2
aI3
aaa(lp171
(lp172
I3
aI4
aa(lp173
I2
aI1
aa(lp174
I1
aI3
aa(lp175
I4
aI2
aaa(lp176
(lp177
I2
aI2
aa(lp178
I4
aI1
aa(lp179
I3
aI3
aa(lp180
I1
aI4
aaa(lp181
(lp182
I1
aI1
aa(lp183
I3
aI2
aa(lp184
I2
aI3
aa(lp185
I4
aI4
aaa(lp186
(lp187
I4
aI3
aa(lp188
I3
aI1
aa(lp189
I2
aI4
aa(lp190
I1
aI2
aaa(lp191
(lp192
I3
aI4
aa(lp193
I1
aI3
aa(lp194
I4
aI2
aa(lp195
I2
aI1
aaa(lp196
(lp197
I2
aI2
aa(lp198
I4
aI1
aa(lp199
I1
aI4
aa(lp200
I3
aI3
aaa(lp201
(lp202
I4
aI3
aa(lp203
I1
aI2
aa(lp204
I3
aI1
aa(lp205
I2
aI4
aaa(lp206
(lp207
I3
aI4
aa(lp208
I2
aI1
aa(lp209
I4
aI2
aa(lp210
I1
aI3
aaa(lp211
(lp212
I1
aI1
aa(lp213
I4
aI4
aa(lp214
I2
aI3
aa(lp215
I3
aI2
aaa(lp216
(lp217
I2
aI2
aa(lp218
I3
aI3
aa(lp219
I1
aI4
aa(lp220
I4
aI1
aaa(lp221
(lp222
I4
aI3
aa(lp223
I3
aI1
aa(lp224
I1
aI2
aa(lp225
I2
aI4
aaa(lp226
(lp227
I2
aI2
aa(lp228
I1
aI4
aa(lp229
I3
aI3
aa(lp230
I4
aI1
aaa(lp231
(lp232
I3
aI4
aa(lp233
I4
aI2
aa(lp234
I2
aI1
aa(lp235
I1
aI3
aaa(lp236
(lp237
I1
aI1
aa(lp238
I2
aI3
aa(lp239
I4
aI4
aa(lp240
I3
aI2
aaa(lp241
(lp242
I1
aI2
aa(lp243
I2
aI4
aa(lp244
I3
aI1
aa(lp245
I4
aI3
aaa(lp246
(lp247
I3
aI3
aa(lp248
I4
aI1
aa(lp249
I1
aI4
aa(lp250
I2
aI2
aaa(lp251
(lp252
I4
aI4
aa(lp253
I3
aI2
aa(lp254
I2
aI3
aa(lp255
I1
aI1
aaa(lp256
(lp257
I2
aI1
aa(lp258
I4
aI2
aa(lp259
I1
aI3
aa(lp260
I3
aI4
aaa(lp261
(lp262
I2
aI1
aa(lp263
I4
aI2
aa(lp264
I3
aI4
aa(lp265
I1
aI3
aaa(lp266
(lp267
I4
aI4
aa(lp268
I1
aI1
aa(lp269
I2
aI3
aa(lp270
I3
aI2
aaa(lp271
(lp272
I2
aI1
aa(lp273
I3
aI4
aa(lp274
I4
aI2
aa(lp275
I1
aI3
aaa(lp276
(lp277
I1
aI2
aa(lp278
I3
aI1
aa(lp279
I4
aI3
aa(lp280
I2
aI4
aaa(lp281
(lp282
I3
aI3
aa(lp283
I1
aI4
aa(lp284
I2
aI2
aa(lp285
I4
aI1
aaa(lp286
(lp287
I3
aI3
aa(lp288
I2
aI2
aa(lp289
I1
aI4
aa(lp290
I4
aI1
aaa(lp291
(lp292
I1
aI2
aa(lp293
I4
aI3
aa(lp294
I3
aI1
aa(lp295
I2
aI4
aaa(lp296
(lp297
I4
aI4
aa(lp298
I2
aI3
aa(lp299
I1
aI1
aa(lp300
I3
aI2
aaa(lp301
(lp302
I3
aI3
aa(lp303
I1
aI4
aa(lp304
I4
aI1
aa(lp305
I2
aI2
aaa(lp306
(lp307
I2
aI1
aa(lp308
I1
aI3
aa(lp309
I4
aI2
aa(lp310
I3
aI4
aaa(lp311
(lp312
I1
aI2
aa(lp313
I3
aI1
aa(lp314
I2
aI4
aa(lp315
I4
aI3
aaa(lp316
(lp317
I4
aI4
aa(lp318
I2
aI3
aa(lp319
I3
aI2
aa(lp320
I1
aI1
aaa(lp321
(lp322
I2
aI1
aa(lp323
I3
aI4
aa(lp324
I1
aI3
aa(lp325
I4
aI2
aaa(lp326
(lp327
I1
aI2
aa(lp328
I4
aI3
aa(lp329
I2
aI4
aa(lp330
I3
aI1
aaa(lp331
(lp332
I3
aI3
aa(lp333
I2
aI2
aa(lp334
I4
aI1
aa(lp335
I1
aI4
aaa(lp336
(lp337
I4
aI4
aa(lp338
I1
aI1
aa(lp339
I3
aI2
aa(lp340
I2
aI3
aaa(lp341
(lp342
I2
aI1
aa(lp343
I1
aI3
aa(lp344
I3
aI4
aa(lp345
I4
aI2
aaa(lp346
(lp347
I4
aI4
aa(lp348
I3
aI2
aa(lp349
I1
aI1
aa(lp350
I2
aI3
aaa(lp351
(lp352
I1
aI2
aa(lp353
I2
aI4
aa(lp354
I4
aI3
aa(lp355
I3
aI1
aaa(lp356
(lp357
I3
aI3
aa(lp358
I4
aI1
aa(lp359
I2
aI2
aa(lp360
I1
aI4
aaa(lp361
(lp362
I2
aI1
aa(lp363
I1
aI3
aa(lp364
I4
aI2
aa(lp365
I3
aI4
aaa(lp366
(lp367
I4
aI4
aa(lp368
I3
aI2
aa(lp369
I2
aI3
aa(lp370
I1
aI1
aaa(lp371
(lp372
I3
aI3
aa(lp373
I4
aI1
aa(lp374
I1
aI4
aa(lp375
I2
aI2
aaa(lp376
(lp377
I1
aI2
aa(lp378
I3
aI1
aa(lp379
I2
aI4
aa(lp380
I4
aI3
aaa(lp381
(lp382
I1
aI2
aa(lp383
I3
aI1
aa(lp384
I4
aI3
aa(lp385
I2
aI4
aaa(lp386
(lp387
I3
aI3
aa(lp388
I2
aI2
aa(lp389
I1
aI4
aa(lp390
I4
aI1
aaa(lp391
(lp392
I1
aI2
aa(lp393
I4
aI3
aa(lp394
I3
aI1
aa(lp395
I2
aI4
aaa(lp396
(lp397
I2
aI1
aa(lp398
I4
aI2
aa(lp399
I3
aI4
aa(lp400
I1
aI3
aaa(lp401
(lp402
I4
aI4
aa(lp403
I2
aI3
aa(lp404
I1
aI1
aa(lp405
I3
aI2
aaa(lp406
(lp407
I4
aI4
aa(lp408
I1
aI1
aa(lp409
I2
aI3
aa(lp410
I3
aI2
aaa(lp411
(lp412
I2
aI1
aa(lp413
I3
aI4
aa(lp414
I4
aI2
aa(lp415
I1
aI3
aaa(lp416
(lp417
I3
aI3
aa(lp418
I1
aI4
aa(lp419
I2
aI2
aa(lp420
I4
aI1
aaa(lp421
(lp422
I4
aI4
aa(lp423
I2
aI3
aa(lp424
I3
aI2
aa(lp425
I1
aI1
aaa(lp426
(lp427
I1
aI2
aa(lp428
I2
aI4
aa(lp429
I3
aI1
aa(lp430
I4
aI3
aaa(lp431
(lp432
I2
aI1
aa(lp433
I4
aI2
aa(lp434
I1
aI3
aa(lp435
I3
aI4
aaa(lp436
(lp437
I3
aI3
aa(lp438
I1
aI4
aa(lp439
I4
aI1
aa(lp440
I2
aI2
aaa(lp441
(lp442
I1
aI2
aa(lp443
I4
aI3
aa(lp444
I2
aI4
aa(lp445
I3
aI1
aaa(lp446
(lp447
I2
aI1
aa(lp448
I3
aI4
aa(lp449
I1
aI3
aa(lp450
I4
aI2
aaa(lp451
(lp452
I4
aI4
aa(lp453
I1
aI1
aa(lp454
I3
aI2
aa(lp455
I2
aI3
aaa(lp456
(lp457
I3
aI3
aa(lp458
I2
aI2
aa(lp459
I4
aI1
aa(lp460
I1
aI4
aaa(lp461
(lp462
I1
aI2
aa(lp463
I2
aI4
aa(lp464
I4
aI3
aa(lp465
I3
aI1
aaa(lp466
(lp467
I3
aI3
aa(lp468
I4
aI1
aa(lp469
I2
aI2
aa(lp470
I1
aI4
aaa(lp471
(lp472
I2
aI1
aa(lp473
I1
aI3
aa(lp474
I3
aI4
aa(lp475
I4
aI2
aaa(lp476
(lp477
I4
aI4
aa(lp478
I3
aI2
aa(lp479
I1
aI1
aa(lp480
I2
aI3
aaa.